; Function Attrs: nounwind sspstrong uwtable
define internal void @esp_finalize(ptr noundef %obj) #0 {
entry:
  %call.i = tail call ptr @object_dynamic_cast_assert(ptr noundef %obj, ptr noundef nonnull @.str.3, ptr noundef nonnull @.str.104, i32 noundef 20, ptr noundef nonnull @__func__.ESP) #10
  %fifo = getelementptr inbounds nuw i8, ptr %call.i, i64 224
  tail call void @fifo8_destroy(ptr noundef nonnull %fifo) #10
  %cmdfifo = getelementptr inbounds nuw i8, ptr %call.i, i64 408
  tail call void @fifo8_destroy(ptr noundef nonnull %cmdfifo) #10
  ret void
}